; Function Attrs: mustprogress nounwind uwtable
define void @_ZN6google8protobuf24MergedDescriptorDatabaseD2Ev(ptr nocapture noundef nonnull align 8 dereferenceable(32) %this) unnamed_addr #8 align 2 personality ptr @__gxx_personality_v0 {
entry:
  store ptr getelementptr inbounds ({ [9 x ptr] }, ptr @_ZTVN6google8protobuf24MergedDescriptorDatabaseE, i64 0, i32 0, i64 2), ptr %this, align 8
  %sources_ = getelementptr inbounds i8, ptr %this, i64 8
  %0 = load ptr, ptr %sources_, align 8
  %tobool.not.i.i.i = icmp eq ptr %0, null
  br i1 %tobool.not.i.i.i, label %_ZNSt6vectorIPN6google8protobuf18DescriptorDatabaseESaIS3_EED2Ev.exit, label %if.then.i.i.i

if.then.i.i.i:                                    ; preds = %entry
  tail call void @_ZdlPv(ptr noundef nonnull %0) #29
  br label %_ZNSt6vectorIPN6google8protobuf18DescriptorDatabaseESaIS3_EED2Ev.exit

_ZNSt6vectorIPN6google8protobuf18DescriptorDatabaseESaIS3_EED2Ev.exit: ; preds = %entry, %if.then.i.i.i
  ret void
}